; Function Attrs: mustprogress uwtable
define hidden void @_ZN3fpa6solver12new_diseq_ehERKN3euf5th_eqE(ptr noundef nonnull align 8 dereferenceable(1556) %this, ptr nocapture noundef nonnull readonly align 8 dereferenceable(32) %eq) unnamed_addr #3 align 2 {
entry:
  %m_v1.i = getelementptr inbounds i8, ptr %eq, i64 4
  %0 = load i32, ptr %m_v1.i, align 4
  %m_v2.i = getelementptr inbounds i8, ptr %eq, i64 8
  %1 = load i32, ptr %m_v2.i, align 8
  tail call void @_ZN3fpa6solver24ensure_equality_relationEii(ptr noundef nonnull align 8 dereferenceable(1556) %this, i32 noundef %0, i32 noundef %1)
  ret void
}